; Function Attrs: nounwind uwtable
define hidden range(i32 -1, 1) i32 @_Py_ext_module_loader_info_init_from_spec(ptr noundef writeonly captures(none) %0, ptr noundef %1) local_unnamed_addr #0 {
  %3 = tail call ptr @PyObject_GetAttrString(ptr noundef %1, ptr noundef nonnull @.str.4) #6
  %4 = icmp eq ptr %3, null
  br i1 %4, label %Py_DECREF.exit17, label %5

5:                                                ; preds = %2
  %6 = tail call ptr @PyObject_GetAttrString(ptr noundef %1, ptr noundef nonnull @.str.5) #6
  %7 = icmp eq ptr %6, null
  br i1 %7, label %8, label %13

8:                                                ; preds = %5
  %9 = load i32, ptr %3, align 8, !tbaa !9
  %.not.i16 = icmp sgt i32 %9, -1
  br i1 %.not.i16, label %10, label %Py_DECREF.exit17

10:                                               ; preds = %8
  %11 = add nsw i32 %9, -1
  store i32 %11, ptr %3, align 8, !tbaa !9
  %12 = icmp eq i32 %11, 0
  br i1 %12, label %Py_DECREF.exit17.sink.split, label %Py_DECREF.exit17

13:                                               ; preds = %5
  %14 = tail call i32 @_Py_ext_module_loader_info_init(ptr noundef %0, ptr noundef nonnull %3, ptr noundef nonnull %6, i32 noundef 3)
  %15 = load i32, ptr %3, align 8, !tbaa !9
  %.not.i14 = icmp sgt i32 %15, -1
  br i1 %.not.i14, label %16, label %Py_DECREF.exit15

16:                                               ; preds = %13
  %17 = add nsw i32 %15, -1
  store i32 %17, ptr %3, align 8, !tbaa !9
  %18 = icmp eq i32 %17, 0
  br i1 %18, label %19, label %Py_DECREF.exit15

19:                                               ; preds = %16
  tail call void @_Py_Dealloc(ptr noundef nonnull %3) #6
  br label %Py_DECREF.exit15

Py_DECREF.exit15:                                 ; preds = %13, %16, %19
  %20 = load i32, ptr %6, align 8, !tbaa !9
  %.not.i = icmp sgt i32 %20, -1
  br i1 %.not.i, label %21, label %Py_DECREF.exit17

21:                                               ; preds = %Py_DECREF.exit15
  %22 = add nsw i32 %20, -1
  store i32 %22, ptr %6, align 8, !tbaa !9
  %23 = icmp eq i32 %22, 0
  br i1 %23, label %Py_DECREF.exit17.sink.split, label %Py_DECREF.exit17

Py_DECREF.exit17.sink.split:                      ; preds = %21, %10
  %.sink = phi ptr [ %3, %10 ], [ %6, %21 ]
  %.0.ph = phi i32 [ -1, %10 ], [ %14, %21 ]
  tail call void @_Py_Dealloc(ptr noundef nonnull %.sink) #6
  br label %Py_DECREF.exit17

Py_DECREF.exit17:                                 ; preds = %Py_DECREF.exit17.sink.split, %21, %Py_DECREF.exit15, %10, %8, %2
  %.0 = phi i32 [ -1, %2 ], [ -1, %8 ], [ -1, %10 ], [ %14, %Py_DECREF.exit15 ], [ %14, %21 ], [ %.0.ph, %Py_DECREF.exit17.sink.split ]
  ret i32 %.0
}